target datalayout = "e-m:e-p270:32:32-p271:32:32-p272:64:64-i64:64-i128:128-f80:128-n8:16:32:64-S128"
target triple = "x86_64-pc-linux-gnu"

%struct.rsa_st = type { i32, ptr, i32, ptr, ptr, ptr, ptr, ptr, ptr, ptr, ptr, ptr, ptr, %struct.rsa_pss_params_30_st, ptr, ptr, %struct.crypto_ex_data_st, %struct.CRYPTO_REF_COUNT, i32, ptr, ptr, ptr, ptr, ptr, ptr, i32 }
%struct.rsa_pss_params_30_st = type { i32, %struct.anon, i32, i32 }
%struct.anon = type { i32, i32 }
%struct.crypto_ex_data_st = type { ptr, ptr }
%struct.CRYPTO_REF_COUNT = type { i32 }

@.str.2 = private unnamed_addr constant [33 x i8] c"../openssl/crypto/rsa/rsa_ossl.c\00", align 1
@__func__.derive_kdk = private unnamed_addr constant [11 x i8] c"derive_kdk\00", align 1
@.str.3 = private unnamed_addr constant [7 x i8] c"sha256\00", align 1

; Function Attrs: nounwind uwtable
define internal i32 @derive_kdk(i32 noundef %0, ptr noundef %1, ptr noundef %2, ptr noundef %3, i32 noundef %4, ptr noundef %5) #0 {
  %7 = alloca i32, align 4
  %8 = alloca ptr, align 8
  %9 = alloca ptr, align 8
  %10 = alloca ptr, align 8
  %11 = alloca i32, align 4
  %12 = alloca ptr, align 8
  %13 = alloca i32, align 4
  %14 = alloca ptr, align 8
  %15 = alloca ptr, align 8
  %16 = alloca i32, align 4
  %17 = alloca [32 x i8], align 16
  %18 = alloca ptr, align 8
  store i32 %0, ptr %7, align 4, !tbaa !8
  store ptr %1, ptr %8, align 8, !tbaa !10
  store ptr %2, ptr %9, align 8, !tbaa !12
  store ptr %3, ptr %10, align 8, !tbaa !10
  store i32 %4, ptr %11, align 4, !tbaa !8
  store ptr %5, ptr %12, align 8, !tbaa !10
  call void @llvm.lifetime.start.p0(i64 4, ptr %13) #6
  store i32 0, ptr %13, align 4, !tbaa !8
  call void @llvm.lifetime.start.p0(i64 8, ptr %14) #6
  store ptr null, ptr %14, align 8, !tbaa !70
  call void @llvm.lifetime.start.p0(i64 8, ptr %15) #6
  store ptr null, ptr %15, align 8, !tbaa !72
  call void @llvm.lifetime.start.p0(i64 4, ptr %16) #6
  store i32 32, ptr %16, align 4, !tbaa !8
  call void @llvm.lifetime.start.p0(i64 32, ptr %17) #6
  call void @llvm.memset.p0.i64(ptr align 16 %17, i8 0, i64 32, i1 false)
  call void @llvm.lifetime.start.p0(i64 8, ptr %18) #6
  %19 = call ptr @BN_new()
  store ptr %19, ptr %18, align 8, !tbaa !32
  %20 = load ptr, ptr %18, align 8, !tbaa !32
  %21 = icmp eq ptr %20, null
  br i1 %21, label %22, label %23

22:                                               ; preds = %6
  call void @ERR_new()
  call void @ERR_set_debug(ptr noundef @.str.2, i32 noundef 449, ptr noundef @__func__.derive_kdk)
  call void (i32, i32, ptr, ...) @ERR_set_error(i32 noundef 4, i32 noundef 524303, ptr noundef null)
  br label %107

23:                                               ; preds = %6
  %24 = load ptr, ptr %9, align 8, !tbaa !12
  %25 = getelementptr inbounds nuw %struct.rsa_st, ptr %24, i32 0, i32 7
  %26 = load ptr, ptr %25, align 8, !tbaa !49
  %27 = icmp eq ptr %26, null
  br i1 %27, label %28, label %30

28:                                               ; preds = %23
  call void @ERR_new()
  call void @ERR_set_debug(ptr noundef @.str.2, i32 noundef 453, ptr noundef @__func__.derive_kdk)
  call void (i32, i32, ptr, ...) @ERR_set_error(i32 noundef 4, i32 noundef 179, ptr noundef null)
  %29 = load ptr, ptr %18, align 8, !tbaa !32
  call void @BN_free(ptr noundef %29)
  br label %107

30:                                               ; preds = %23
  %31 = load ptr, ptr %18, align 8, !tbaa !32
  %32 = load ptr, ptr %9, align 8, !tbaa !12
  %33 = getelementptr inbounds nuw %struct.rsa_st, ptr %32, i32 0, i32 7
  %34 = load ptr, ptr %33, align 8, !tbaa !49
  call void @BN_with_flags(ptr noundef %31, ptr noundef %34, i32 noundef 4)
  %35 = load ptr, ptr %18, align 8, !tbaa !32
  %36 = load ptr, ptr %10, align 8, !tbaa !10
  %37 = load i32, ptr %11, align 4, !tbaa !8
  %38 = call i32 @BN_bn2binpad(ptr noundef %35, ptr noundef %36, i32 noundef %37)
  %39 = icmp slt i32 %38, 0
  br i1 %39, label %40, label %42

40:                                               ; preds = %30
  call void @ERR_new()
  call void @ERR_set_debug(ptr noundef @.str.2, i32 noundef 459, ptr noundef @__func__.derive_kdk)
  call void (i32, i32, ptr, ...) @ERR_set_error(i32 noundef 4, i32 noundef 786691, ptr noundef null)
  %41 = load ptr, ptr %18, align 8, !tbaa !32
  call void @BN_free(ptr noundef %41)
  br label %107

42:                                               ; preds = %30
  %43 = load ptr, ptr %18, align 8, !tbaa !32
  call void @BN_free(ptr noundef %43)
  %44 = load ptr, ptr %9, align 8, !tbaa !12
  %45 = getelementptr inbounds nuw %struct.rsa_st, ptr %44, i32 0, i32 1
  %46 = load ptr, ptr %45, align 8, !tbaa !31
  %47 = call ptr @EVP_MD_fetch(ptr noundef %46, ptr noundef @.str.3, ptr noundef null)
  store ptr %47, ptr %15, align 8, !tbaa !72
  %48 = load ptr, ptr %15, align 8, !tbaa !72
  %49 = icmp eq ptr %48, null
  br i1 %49, label %50, label %51

50:                                               ; preds = %42
  call void @ERR_new()
  call void @ERR_set_debug(ptr noundef @.str.2, i32 noundef 474, ptr noundef @__func__.derive_kdk)
  call void (i32, i32, ptr, ...) @ERR_set_error(i32 noundef 4, i32 noundef 524557, ptr noundef null)
  br label %107

51:                                               ; preds = %42
  %52 = load ptr, ptr %10, align 8, !tbaa !10
  %53 = load i32, ptr %11, align 4, !tbaa !8
  %54 = sext i32 %53 to i64
  %55 = getelementptr inbounds [32 x i8], ptr %17, i64 0, i64 0
  %56 = load ptr, ptr %15, align 8, !tbaa !72
  %57 = call i32 @EVP_Digest(ptr noundef %52, i64 noundef %54, ptr noundef %55, ptr noundef null, ptr noundef %56, ptr noundef null)
  %58 = icmp sle i32 %57, 0
  br i1 %58, label %59, label %60

59:                                               ; preds = %51
  call void @ERR_new()
  call void @ERR_set_debug(ptr noundef @.str.2, i32 noundef 479, ptr noundef @__func__.derive_kdk)
  call void (i32, i32, ptr, ...) @ERR_set_error(i32 noundef 4, i32 noundef 786691, ptr noundef null)
  br label %107

60:                                               ; preds = %51
  %61 = call ptr @HMAC_CTX_new()
  store ptr %61, ptr %14, align 8, !tbaa !70
  %62 = load ptr, ptr %14, align 8, !tbaa !70
  %63 = icmp eq ptr %62, null
  br i1 %63, label %64, label %65

64:                                               ; preds = %60
  call void @ERR_new()
  call void @ERR_set_debug(ptr noundef @.str.2, i32 noundef 485, ptr noundef @__func__.derive_kdk)
  call void (i32, i32, ptr, ...) @ERR_set_error(i32 noundef 4, i32 noundef 524303, ptr noundef null)
  br label %107

65:                                               ; preds = %60
  %66 = load ptr, ptr %14, align 8, !tbaa !70
  %67 = getelementptr inbounds [32 x i8], ptr %17, i64 0, i64 0
  %68 = load ptr, ptr %15, align 8, !tbaa !72
  %69 = call i32 @HMAC_Init_ex(ptr noundef %66, ptr noundef %67, i32 noundef 32, ptr noundef %68, ptr noundef null)
  %70 = icmp sle i32 %69, 0
  br i1 %70, label %71, label %72

71:                                               ; preds = %65
  call void @ERR_new()
  call void @ERR_set_debug(ptr noundef @.str.2, i32 noundef 490, ptr noundef @__func__.derive_kdk)
  call void (i32, i32, ptr, ...) @ERR_set_error(i32 noundef 4, i32 noundef 786691, ptr noundef null)
  br label %107

72:                                               ; preds = %65
  %73 = load i32, ptr %7, align 4, !tbaa !8
  %74 = load i32, ptr %11, align 4, !tbaa !8
  %75 = icmp slt i32 %73, %74
  br i1 %75, label %76, label %92

76:                                               ; preds = %72
  %77 = load ptr, ptr %10, align 8, !tbaa !10
  %78 = load i32, ptr %11, align 4, !tbaa !8
  %79 = load i32, ptr %7, align 4, !tbaa !8
  %80 = sub nsw i32 %78, %79
  %81 = sext i32 %80 to i64
  call void @llvm.memset.p0.i64(ptr align 1 %77, i8 0, i64 %81, i1 false)
  %82 = load ptr, ptr %14, align 8, !tbaa !70
  %83 = load ptr, ptr %10, align 8, !tbaa !10
  %84 = load i32, ptr %11, align 4, !tbaa !8
  %85 = load i32, ptr %7, align 4, !tbaa !8
  %86 = sub nsw i32 %84, %85
  %87 = sext i32 %86 to i64
  %88 = call i32 @HMAC_Update(ptr noundef %82, ptr noundef %83, i64 noundef %87)
  %89 = icmp sle i32 %88, 0
  br i1 %89, label %90, label %91

90:                                               ; preds = %76
  call void @ERR_new()
  call void @ERR_set_debug(ptr noundef @.str.2, i32 noundef 497, ptr noundef @__func__.derive_kdk)
  call void (i32, i32, ptr, ...) @ERR_set_error(i32 noundef 4, i32 noundef 786691, ptr noundef null)
  br label %107

91:                                               ; preds = %76
  br label %92

92:                                               ; preds = %91, %72
  %93 = load ptr, ptr %14, align 8, !tbaa !70
  %94 = load ptr, ptr %8, align 8, !tbaa !10
  %95 = load i32, ptr %7, align 4, !tbaa !8
  %96 = sext i32 %95 to i64
  %97 = call i32 @HMAC_Update(ptr noundef %93, ptr noundef %94, i64 noundef %96)
  %98 = icmp sle i32 %97, 0
  br i1 %98, label %99, label %100

99:                                               ; preds = %92
  call void @ERR_new()
  call void @ERR_set_debug(ptr noundef @.str.2, i32 noundef 502, ptr noundef @__func__.derive_kdk)
  call void (i32, i32, ptr, ...) @ERR_set_error(i32 noundef 4, i32 noundef 786691, ptr noundef null)
  br label %107

100:                                              ; preds = %92
  store i32 32, ptr %16, align 4, !tbaa !8
  %101 = load ptr, ptr %14, align 8, !tbaa !70
  %102 = load ptr, ptr %12, align 8, !tbaa !10
  %103 = call i32 @HMAC_Final(ptr noundef %101, ptr noundef %102, ptr noundef %16)
  %104 = icmp sle i32 %103, 0
  br i1 %104, label %105, label %106

105:                                              ; preds = %100
  call void @ERR_new()
  call void @ERR_set_debug(ptr noundef @.str.2, i32 noundef 508, ptr noundef @__func__.derive_kdk)
  call void (i32, i32, ptr, ...) @ERR_set_error(i32 noundef 4, i32 noundef 786691, ptr noundef null)
  br label %107

106:                                              ; preds = %100
  store i32 1, ptr %13, align 4, !tbaa !8
  br label %107

107:                                              ; preds = %106, %105, %99, %90, %71, %64, %59, %50, %40, %28, %22
  %108 = load ptr, ptr %14, align 8, !tbaa !70
  call void @HMAC_CTX_free(ptr noundef %108)
  %109 = load ptr, ptr %15, align 8, !tbaa !72
  call void @EVP_MD_free(ptr noundef %109)
  %110 = load i32, ptr %13, align 4, !tbaa !8
  call void @llvm.lifetime.end.p0(i64 8, ptr %18) #6
  call void @llvm.lifetime.end.p0(i64 32, ptr %17) #6
  call void @llvm.lifetime.end.p0(i64 4, ptr %16) #6
  call void @llvm.lifetime.end.p0(i64 8, ptr %15) #6
  call void @llvm.lifetime.end.p0(i64 8, ptr %14) #6
  call void @llvm.lifetime.end.p0(i64 4, ptr %13) #6
  ret i32 %110
}