; Function Attrs: nounwind uwtable
define internal fastcc range(i32 0, 2) i32 @derive_kdk(i32 noundef range(i32 1, 268435456) %0, ptr noundef %1, ptr noundef readonly captures(none) %2, ptr noundef nonnull %3, i32 noundef range(i32 -268435455, 268435456) %4, ptr noundef nonnull %5) unnamed_addr #3 {
  %7 = alloca i32, align 4
  %8 = alloca [32 x i8], align 16
  call void @llvm.lifetime.start.p0(i64 4, ptr nonnull %7) #9
  store i32 32, ptr %7, align 4, !tbaa !34
  call void @llvm.lifetime.start.p0(i64 32, ptr nonnull %8) #9
  call void @llvm.memset.p0.i64(ptr noundef nonnull align 16 dereferenceable(32) %8, i8 0, i64 32, i1 false)
  %9 = tail call ptr @BN_new() #9
  %10 = icmp eq ptr %9, null
  br i1 %10, label %11, label %12

11:                                               ; preds = %6
  tail call void @ERR_new() #9
  tail call void @ERR_set_debug(ptr noundef nonnull @.str.2, i32 noundef 449, ptr noundef nonnull @__func__.derive_kdk) #9
  tail call void (i32, i32, ptr, ...) @ERR_set_error(i32 noundef 4, i32 noundef 524303, ptr noundef null) #9
  br label %57

12:                                               ; preds = %6
  %13 = getelementptr inbounds nuw i8, ptr %2, i64 56
  %14 = load ptr, ptr %13, align 8, !tbaa !42
  %15 = icmp eq ptr %14, null
  br i1 %15, label %16, label %17

16:                                               ; preds = %12
  tail call void @ERR_new() #9
  tail call void @ERR_set_debug(ptr noundef nonnull @.str.2, i32 noundef 453, ptr noundef nonnull @__func__.derive_kdk) #9
  tail call void (i32, i32, ptr, ...) @ERR_set_error(i32 noundef 4, i32 noundef 179, ptr noundef null) #9
  tail call void @BN_free(ptr noundef nonnull %9) #9
  br label %57

17:                                               ; preds = %12
  tail call void @BN_with_flags(ptr noundef nonnull %9, ptr noundef nonnull %14, i32 noundef 4) #9
  %18 = tail call i32 @BN_bn2binpad(ptr noundef nonnull %9, ptr noundef nonnull %3, i32 noundef %4) #9
  %19 = icmp slt i32 %18, 0
  br i1 %19, label %20, label %21

20:                                               ; preds = %17
  tail call void @ERR_new() #9
  tail call void @ERR_set_debug(ptr noundef nonnull @.str.2, i32 noundef 459, ptr noundef nonnull @__func__.derive_kdk) #9
  tail call void (i32, i32, ptr, ...) @ERR_set_error(i32 noundef 4, i32 noundef 786691, ptr noundef null) #9
  tail call void @BN_free(ptr noundef nonnull %9) #9
  br label %57

21:                                               ; preds = %17
  tail call void @BN_free(ptr noundef nonnull %9) #9
  %22 = getelementptr inbounds nuw i8, ptr %2, i64 8
  %23 = load ptr, ptr %22, align 8, !tbaa !24
  %24 = tail call ptr @EVP_MD_fetch(ptr noundef %23, ptr noundef nonnull @.str.3, ptr noundef null) #9
  %25 = icmp eq ptr %24, null
  br i1 %25, label %26, label %27

26:                                               ; preds = %21
  tail call void @ERR_new() #9
  tail call void @ERR_set_debug(ptr noundef nonnull @.str.2, i32 noundef 474, ptr noundef nonnull @__func__.derive_kdk) #9
  tail call void (i32, i32, ptr, ...) @ERR_set_error(i32 noundef 4, i32 noundef 524557, ptr noundef null) #9
  br label %57

27:                                               ; preds = %21
  %28 = sext i32 %4 to i64
  %29 = call i32 @EVP_Digest(ptr noundef nonnull %3, i64 noundef %28, ptr noundef nonnull %8, ptr noundef null, ptr noundef nonnull %24, ptr noundef null) #9
  %30 = icmp slt i32 %29, 1
  br i1 %30, label %31, label %32

31:                                               ; preds = %27
  call void @ERR_new() #9
  call void @ERR_set_debug(ptr noundef nonnull @.str.2, i32 noundef 479, ptr noundef nonnull @__func__.derive_kdk) #9
  call void (i32, i32, ptr, ...) @ERR_set_error(i32 noundef 4, i32 noundef 786691, ptr noundef null) #9
  br label %57

32:                                               ; preds = %27
  %33 = call ptr @HMAC_CTX_new() #9
  %34 = icmp eq ptr %33, null
  br i1 %34, label %35, label %36

35:                                               ; preds = %32
  call void @ERR_new() #9
  call void @ERR_set_debug(ptr noundef nonnull @.str.2, i32 noundef 485, ptr noundef nonnull @__func__.derive_kdk) #9
  call void (i32, i32, ptr, ...) @ERR_set_error(i32 noundef 4, i32 noundef 524303, ptr noundef null) #9
  br label %57

36:                                               ; preds = %32
  %37 = call i32 @HMAC_Init_ex(ptr noundef nonnull %33, ptr noundef nonnull %8, i32 noundef 32, ptr noundef nonnull %24, ptr noundef null) #9
  %38 = icmp slt i32 %37, 1
  br i1 %38, label %39, label %40

39:                                               ; preds = %36
  call void @ERR_new() #9
  call void @ERR_set_debug(ptr noundef nonnull @.str.2, i32 noundef 490, ptr noundef nonnull @__func__.derive_kdk) #9
  call void (i32, i32, ptr, ...) @ERR_set_error(i32 noundef 4, i32 noundef 786691, ptr noundef null) #9
  br label %57

40:                                               ; preds = %36
  %41 = icmp slt i32 %0, %4
  br i1 %41, label %42, label %48

42:                                               ; preds = %40
  %43 = sub nsw i32 %4, %0
  %44 = sext i32 %43 to i64
  call void @llvm.memset.p0.i64(ptr nonnull align 1 %3, i8 0, i64 %44, i1 false)
  %45 = call i32 @HMAC_Update(ptr noundef nonnull %33, ptr noundef nonnull %3, i64 noundef %44) #9
  %46 = icmp slt i32 %45, 1
  br i1 %46, label %47, label %48

47:                                               ; preds = %42
  call void @ERR_new() #9
  call void @ERR_set_debug(ptr noundef nonnull @.str.2, i32 noundef 497, ptr noundef nonnull @__func__.derive_kdk) #9
  call void (i32, i32, ptr, ...) @ERR_set_error(i32 noundef 4, i32 noundef 786691, ptr noundef null) #9
  br label %57

48:                                               ; preds = %42, %40
  %49 = zext nneg i32 %0 to i64
  %50 = call i32 @HMAC_Update(ptr noundef nonnull %33, ptr noundef %1, i64 noundef %49) #9
  %51 = icmp slt i32 %50, 1
  br i1 %51, label %52, label %53

52:                                               ; preds = %48
  call void @ERR_new() #9
  call void @ERR_set_debug(ptr noundef nonnull @.str.2, i32 noundef 502, ptr noundef nonnull @__func__.derive_kdk) #9
  call void (i32, i32, ptr, ...) @ERR_set_error(i32 noundef 4, i32 noundef 786691, ptr noundef null) #9
  br label %57

53:                                               ; preds = %48
  store i32 32, ptr %7, align 4, !tbaa !34
  %54 = call i32 @HMAC_Final(ptr noundef nonnull %33, ptr noundef nonnull %5, ptr noundef nonnull %7) #9
  %55 = icmp slt i32 %54, 1
  br i1 %55, label %56, label %57

56:                                               ; preds = %53
  call void @ERR_new() #9
  call void @ERR_set_debug(ptr noundef nonnull @.str.2, i32 noundef 508, ptr noundef nonnull @__func__.derive_kdk) #9
  call void (i32, i32, ptr, ...) @ERR_set_error(i32 noundef 4, i32 noundef 786691, ptr noundef null) #9
  br label %57

57:                                               ; preds = %53, %56, %52, %47, %39, %35, %31, %26, %20, %16, %11
  %.035 = phi ptr [ null, %11 ], [ null, %16 ], [ null, %20 ], [ null, %26 ], [ null, %31 ], [ null, %35 ], [ %33, %39 ], [ %33, %47 ], [ %33, %52 ], [ %33, %56 ], [ %33, %53 ]
  %.034 = phi ptr [ null, %11 ], [ null, %16 ], [ null, %20 ], [ null, %26 ], [ %24, %31 ], [ %24, %35 ], [ %24, %39 ], [ %24, %47 ], [ %24, %52 ], [ %24, %56 ], [ %24, %53 ]
  %.0 = phi i32 [ 0, %11 ], [ 0, %16 ], [ 0, %20 ], [ 0, %26 ], [ 0, %31 ], [ 0, %35 ], [ 0, %39 ], [ 0, %47 ], [ 0, %52 ], [ 0, %56 ], [ 1, %53 ]
  call void @HMAC_CTX_free(ptr noundef %.035) #9
  call void @EVP_MD_free(ptr noundef %.034) #9
  call void @llvm.lifetime.end.p0(i64 32, ptr nonnull %8) #9
  call void @llvm.lifetime.end.p0(i64 4, ptr nonnull %7) #9
  ret i32 %.0
}